; Function Attrs: mustprogress uwtable
define noundef double @_ZNK8QuantLib30AndreasenHugeVolatilityAdapter17blackVarianceImplEdd(ptr nocapture noundef nonnull readonly align 8 dereferenceable(96) %this, double noundef %t, double noundef %strike) unnamed_addr #7 align 2 {
entry:
  %volInterpl_ = getelementptr inbounds nuw i8, ptr %this, i64 80
  %0 = load ptr, ptr %volInterpl_, align 8, !tbaa !57
  %cmp.not.i = icmp eq ptr %0, null
  br i1 %cmp.not.i, label %cond.false.i, label %_ZNK5boost10shared_ptrIN8QuantLib30AndreasenHugeVolatilityInterplEEptEv.exit, !prof !58

cond.false.i:                                     ; preds = %entry
  tail call void @_ZN5boost16assertion_failedEPKcS1_S1_l(ptr noundef nonnull @.str.9, ptr noundef nonnull @__PRETTY_FUNCTION__._ZNK5boost10shared_ptrIN8QuantLib30AndreasenHugeVolatilityInterplEEptEv, ptr noundef nonnull @.str.10, i64 noundef 784)
  %.pre.i = load ptr, ptr %volInterpl_, align 8, !tbaa !57
  br label %_ZNK5boost10shared_ptrIN8QuantLib30AndreasenHugeVolatilityInterplEEptEv.exit

_ZNK5boost10shared_ptrIN8QuantLib30AndreasenHugeVolatilityInterplEEptEv.exit: ; preds = %entry, %cond.false.i
  %1 = phi ptr [ %0, %entry ], [ %.pre.i, %cond.false.i ]
  %call2 = tail call noundef double @_ZNK8QuantLib30AndreasenHugeVolatilityInterpl3fwdEd(ptr noundef nonnull align 8 dereferenceable(488) %1, double noundef %t)
  %cmp = fcmp ogt double %call2, %strike
  %cond = select i1 %cmp, i32 -1, i32 1
  %2 = load ptr, ptr %volInterpl_, align 8, !tbaa !57
  %cmp.not.i7 = icmp eq ptr %2, null
  br i1 %cmp.not.i7, label %cond.false.i8, label %_ZNK5boost10shared_ptrIN8QuantLib30AndreasenHugeVolatilityInterplEEptEv.exit10, !prof !58

cond.false.i8:                                    ; preds = %_ZNK5boost10shared_ptrIN8QuantLib30AndreasenHugeVolatilityInterplEEptEv.exit
  tail call void @_ZN5boost16assertion_failedEPKcS1_S1_l(ptr noundef nonnull @.str.9, ptr noundef nonnull @__PRETTY_FUNCTION__._ZNK5boost10shared_ptrIN8QuantLib30AndreasenHugeVolatilityInterplEEptEv, ptr noundef nonnull @.str.10, i64 noundef 784)
  %.pre.i9 = load ptr, ptr %volInterpl_, align 8, !tbaa !57
  br label %_ZNK5boost10shared_ptrIN8QuantLib30AndreasenHugeVolatilityInterplEEptEv.exit10

_ZNK5boost10shared_ptrIN8QuantLib30AndreasenHugeVolatilityInterplEEptEv.exit10: ; preds = %_ZNK5boost10shared_ptrIN8QuantLib30AndreasenHugeVolatilityInterplEEptEv.exit, %cond.false.i8
  %3 = phi ptr [ %2, %_ZNK5boost10shared_ptrIN8QuantLib30AndreasenHugeVolatilityInterplEEptEv.exit ], [ %.pre.i9, %cond.false.i8 ]
  %call5 = tail call noundef double @_ZNK8QuantLib30AndreasenHugeVolatilityInterpl11optionPriceEddNS_6Option4TypeE(ptr noundef nonnull align 8 dereferenceable(488) %3, double noundef %t, double noundef %strike, i32 noundef %cond)
  %4 = load ptr, ptr %volInterpl_, align 8, !tbaa !57
  %cmp.not.i11 = icmp eq ptr %4, null
  br i1 %cmp.not.i11, label %cond.false.i12, label %_ZNK5boost10shared_ptrIN8QuantLib30AndreasenHugeVolatilityInterplEEptEv.exit14, !prof !58

cond.false.i12:                                   ; preds = %_ZNK5boost10shared_ptrIN8QuantLib30AndreasenHugeVolatilityInterplEEptEv.exit10
  tail call void @_ZN5boost16assertion_failedEPKcS1_S1_l(ptr noundef nonnull @.str.9, ptr noundef nonnull @__PRETTY_FUNCTION__._ZNK5boost10shared_ptrIN8QuantLib30AndreasenHugeVolatilityInterplEEptEv, ptr noundef nonnull @.str.10, i64 noundef 784)
  %.pre.i13 = load ptr, ptr %volInterpl_, align 8, !tbaa !57
  br label %_ZNK5boost10shared_ptrIN8QuantLib30AndreasenHugeVolatilityInterplEEptEv.exit14

_ZNK5boost10shared_ptrIN8QuantLib30AndreasenHugeVolatilityInterplEEptEv.exit14: ; preds = %_ZNK5boost10shared_ptrIN8QuantLib30AndreasenHugeVolatilityInterplEEptEv.exit10, %cond.false.i12
  %5 = phi ptr [ %4, %_ZNK5boost10shared_ptrIN8QuantLib30AndreasenHugeVolatilityInterplEEptEv.exit10 ], [ %.pre.i13, %cond.false.i12 ]
  %call8 = tail call noundef nonnull align 8 dereferenceable(16) ptr @_ZNK8QuantLib30AndreasenHugeVolatilityInterpl12riskFreeRateEv(ptr noundef nonnull align 8 dereferenceable(488) %5)
  %call9 = tail call noundef nonnull align 8 dereferenceable(16) ptr @_ZNK8QuantLib6HandleINS_18YieldTermStructureEEptEv(ptr noundef nonnull align 8 dereferenceable(16) %call8)
  %6 = load ptr, ptr %call9, align 8, !tbaa !59
  %cmp.not.i15 = icmp eq ptr %6, null
  br i1 %cmp.not.i15, label %cond.false.i16, label %_ZNK5boost10shared_ptrIN8QuantLib18YieldTermStructureEEptEv.exit, !prof !58

cond.false.i16:                                   ; preds = %_ZNK5boost10shared_ptrIN8QuantLib30AndreasenHugeVolatilityInterplEEptEv.exit14
  tail call void @_ZN5boost16assertion_failedEPKcS1_S1_l(ptr noundef nonnull @.str.9, ptr noundef nonnull @__PRETTY_FUNCTION__._ZNK5boost10shared_ptrIN8QuantLib18YieldTermStructureEEptEv, ptr noundef nonnull @.str.10, i64 noundef 784)
  %.pre.i17 = load ptr, ptr %call9, align 8, !tbaa !59
  br label %_ZNK5boost10shared_ptrIN8QuantLib18YieldTermStructureEEptEv.exit

_ZNK5boost10shared_ptrIN8QuantLib18YieldTermStructureEEptEv.exit: ; preds = %_ZNK5boost10shared_ptrIN8QuantLib30AndreasenHugeVolatilityInterplEEptEv.exit14, %cond.false.i16
  %7 = phi ptr [ %6, %_ZNK5boost10shared_ptrIN8QuantLib30AndreasenHugeVolatilityInterplEEptEv.exit14 ], [ %.pre.i17, %cond.false.i16 ]
  %call11 = tail call noundef double @_ZNK8QuantLib18YieldTermStructure8discountEdb(ptr noundef nonnull align 8 dereferenceable(152) %7, double noundef %t, i1 noundef zeroext false)
  %eps_ = getelementptr inbounds nuw i8, ptr %this, i64 72
  %8 = load double, ptr %eps_, align 8, !tbaa !51
  %call13 = tail call noundef double @_ZN8QuantLib29blackFormulaImpliedStdDevLiRSENS_6Option4TypeEddddddddj(i32 noundef %cond, double noundef %strike, double noundef %call2, double noundef %call5, double noundef %call11, double noundef 0.000000e+00, double noundef 0x47EFFFFFE0000000, double noundef 1.000000e+00, double noundef %8, i32 noundef 1000)
  %mul.i = fmul double %call13, %call13
  ret double %mul.i
}